ccopy_reg
_reconstructor
p1
(cgam_cutscene
CutsceneData
p2
c__builtin__
object
p3
NtRp4
(dp5
S'layers'
p6
(lp7
g1
(cgam_cutscene
CutsceneLayer
p8
g3
NtRp9
(dp10
S'distance'
p11
I0
sS'name'
p12
S'Layer'
p13
sS'parent'
p14
NsS'default_infos'
p15
(dp16
S'distance'
p17
I0
sS'name'
p18
g13
sS'parent'
p19
NsS'items'
p20
(lp21
g1
(cgam_cutscene
CutsceneSprite
p22
g3
NtRp23
(dp24
S'scale'
p25
F0.35000000000000003
sg12
S'Sprite1'
p26
sg15
(dp27
S'source'
p28
S'common/default'
p29
sS'scale'
p30
F1
sS'set'
p31
S'default'
p32
sS'bound'
p33
Nsg18
S'Sprite'
p34
ssS'bound'
p35
NsS'source'
p36
S'common/dec0-2.png'
p37
sS'set'
p38
g32
sS'type'
p39
S'sprite'
p40
sS'ID'
p41
I2
sbasS'pos'
p42
(dp43
g23
cnumpy.core.multiarray
_reconstruct
p44
(cnumpy
ndarray
p45
(I0
tS'b'
tRp46
(I1
(I2
tcnumpy
dtype
p47
(S'i8'
I0
I1
tRp48
(I3
S'<'
NNNI-1
I-1
I0
tbI00
S'~\x02\x00\x00\x00\x00\x00\x00S\x01\x00\x00\x00\x00\x00\x00'
tbssg33
NsS'state'
p49
S'idle'
p50
sS'offset'
p51
g44
(g45
(I0
tS'b'
tRp52
(I1
(I2
tg48
I00
S'\x00\x00\x00\x00\x00\x00\x00\x00\x00\x00\x00\x00\x00\x00\x00\x00'
tbsS'alpha'
p53
I1
sS'children'
p54
(lp55
sS'zoom'
p56
I1
ssS'items'
p57
g21
sg35
NsS'pos'
p58
g43
sS'state'
p59
g50
sS'offset'
p60
g52
sS'alpha'
p61
I1
sg41
I2
sg39
S'layer'
p62
sS'children'
p63
g55
sS'zoom'
p64
I1
sbag1
(g8
g3
NtRp65
(dp66
g11
I0
sg12
S'Layer'
p67
sg14
Nsg15
(dp68
S'distance'
p69
I0
sS'name'
p70
g67
sS'parent'
p71
NsS'items'
p72
(lp73
g1
(g22
g3
NtRp74
(dp75
g25
F1
sg12
S'Sprite1'
p76
sg15
(dp77
S'source'
p78
S'common/default'
p79
sS'scale'
p80
F1
sS'set'
p81
S'default'
p82
sS'bound'
p83
NsS'name'
p84
S'Sprite'
p85
ssg35
Nsg36
g79
sg38
g82
sg39
S'sprite'
p86
sg41
I1
sbasS'pos'
p87
(dp88
g23
g44
(g45
(I0
tS'b'
tRp89
(I1
(I2
tg48
I00
S'~\x02\x00\x00\x00\x00\x00\x00S\x01\x00\x00\x00\x00\x00\x00'
tbsg74
g44
(g45
(I0
tS'b'
tRp90
(I1
(I2
tg48
I00
S'\x8f\x01\x00\x00\x00\x00\x00\x00\xbd\x01\x00\x00\x00\x00\x00\x00'
tbssS'bound'
p91
NsS'state'
p92
S'idle'
p93
sS'offset'
p94
g44
(g45
(I0
tS'b'
tRp95
(I1
(I2
tg47
(S'i8'
I0
I1
tRp96
(I3
S'<'
NNNI-1
I-1
I0
tbI00
S'\x00\x00\x00\x00\x00\x00\x00\x00\x00\x00\x00\x00\x00\x00\x00\x00'
tbsS'alpha'
p97
I1
sS'children'
p98
(lp99
sS'zoom'
p100
I1
ssg57
g73
sg35
Nsg58
g88
sg36
g4
sg59
g93
sg60
g95
sg61
I1
sg41
I1
sg39
S'layer'
p101
sg63
g99
sg64
I1
sbasS'sprites'
p102
(lp103
g74
ag23
asS'bg'
p104
S''
sg12
Vtest
p105
sg14
NsS'infotypes'
p106
(dp107
g101
(S'offset'
p108
S'state'
p109
S'zoom'
p110
S'distance'
p111
S'items'
p112
S'name'
p113
S'bound'
p114
S'order'
tp115
sS'sprite'
p116
(S'name'
p117
S'bound'
p118
S'layer'
tp119
ssS'panrange'
p120
(I0
I0
I0
I0
tp121
sg64
I1
sS'typID'
p122
(dp123
g101
I3
sg116
I3
ssS'queue'
p124
(lp125
sS'cast'
p126
g1
(cgam_cast_data
LocCastData
p127
g3
NtRp128
(dp129
g14
NsS'prox'
p130
g1
(cgraphview.clotools
sparsemat
p131
c__builtin__
dict
p132
(dtRp133
(dp134
S'dummy'
p135
g1
(cgraphview.clotools
sparsedummy
p136
g3
NtRp137
(dp138
S'default'
p139
F0
sS'miskey'
p140
Nsg14
g133
sbsbsg63
(lp141
sS'actors'
p142
(lp143
sg106
(dp144
S'actor'
p145
(S'perc'
S'control'
S'subt'
g70
S'agil'
S'color'
S'prox'
S'face'
S'react'
S'status'
S'portrait'
S'prof'
S'terr'
tp146
ssS'infos'
p147
(dp148
sg122
(dp149
g145
I1
ssS'new_items'
p150
(lp151
sbsS'setting'
p152
g1
(cgam_setting
SettingData
p153
g3
NtRp154
(dp155
g6
(lp156
g1
(cgam_setting
PlaceLayer
p157
g3
NtRp158
(dp159
g11
I0
sg12
g67
sg14
Nsg15
(dp160
g69
I0
sg70
g67
sg71
Nsg72
(lp161
sg87
(dp162
sg91
Nsg92
g93
sg94
g95
sg97
I1
sg98
(lp163
sg100
I1
ssg57
g161
sg35
Nsg58
g162
sg36
g154
sg59
g93
sg60
g95
sg61
I1
sg41
I1
sg39
g101
sg63
g163
sg64
I1
sbasg102
(lp164
sg104
S''
sg12
S'place'
p165
sg14
Nsg120
g121
sg64
I1
sg122
(dp166
g101
I2
sg116
I1
ssS'idx'
p167
I0
sg150
(lp168
g158
asS'music'
p169
S''
sS'pan'
p170
(I0
I0
tp171
sg147
(dp172
g158
(dp173
g111
I0
sg113
g67
sg112
g161
sg110
I1
sg114
Nsg109
g93
sg108
g95
sssg63
(lp174
sg106
(dp175
g101
g115
sg116
(S'name'
tp176
ssS'size'
p177
(I3000
I2000
tp178
sbsg169
S''
sg170
g171
sS'scripts'
p179
(lp180
g1
(cgam_script_base
Script
p181
g3
NtRp182
(dp183
g14
NsS'runs'
p184
I0
sS'inverse'
p185
NsS'cues'
p186
(dp187
sg12
S'Script0'
p188
sS'conds'
p189
(lp190
sg15
(dp191
S'name'
p192
g188
sS'iter'
p193
S'always'
p194
sS'effects'
p195
(lp196
sS'conds'
p197
g190
sS'logic'
p198
S''
ssS'args'
p199
(tsS'iter'
p200
I1
sS'states'
p201
g1
(cnetworkx.classes.digraph
DiGraph
p202
g3
NtRp203
(dp204
S'node'
p205
(dp206
I0
(dp207
S'priority'
p208
(dp209
sS'children_states'
p210
(dp211
ssI1
(dp212
g208
(dp213
sg210
(dp214
sssS'graph'
p215
(dp216
sS'succ'
p217
(dp218
I0
(dp219
I1
(dp220
ssI1
(dp221
ssS'edge'
p222
g218
sS'pred'
p223
(dp224
I0
(dp225
sI1
(dp226
I0
g220
sssS'adj'
p227
g218
sbsg36
Nsg59
I0
sS'effects'
p228
(lp229
g1
(cgam_script_base
SceneScriptEffect
p230
g3
NtRp231
(dp232
g15
(dp233
S'info'
p234
S''
sg192
S'Effect'
p235
sS'start'
p236
S'phase'
p237
sS'text'
p238
S''
sS'typ'
p239
S'Text'
p240
sS'actor'
p241
NsS'delay'
p242
S'None'
p243
sS'source'
p244
NsS'duration'
p245
I0
sS'wait'
p246
g243
sS'evt'
p247
NsS'display'
p248
S'Off'
p249
sS'target'
p250
NssS'text'
p251
Vga
p252
sg201
g1
(g202
g3
NtRp253
(dp254
g205
(dp255
I0
(dp256
g208
(dp257
sg210
(dp258
ssI1
(dp259
g208
(dp260
sg210
(dp261
ssI2
(dp262
g208
(dp263
sg210
(dp264
sssg215
(dp265
sg217
(dp266
I0
(dp267
I1
(dp268
ssI1
(dp269
I2
(dp270
ssI2
(dp271
ssg222
g266
sg223
(dp272
I0
(dp273
sI1
(dp274
I0
g268
ssI2
(dp275
I1
g270
sssg227
g266
sbsS'duration'
p276
I0
sg185
Nsg186
(dp277
sS'block_thread'
p278
I0
sS'start'
p279
g237
sS'actor'
p280
S'Narrator'
p281
sS'delay'
p282
g243
sg36
Nsg59
I0
sS'kwargs'
p283
(dp284
sS'wait'
p285
g243
sg39
S'scripteffect'
p286
sg14
Nsg199
(tsS'_affects'
p287
(tsS'typ'
p288
g240
sS'target'
p289
NsS'info'
p290
S''
sg12
g235
sS'evt'
p291
NsS'display'
p292
g249
sbag1
(g230
g3
NtRp293
(dp294
g15
(dp295
S'info'
p296
S''
sS'name'
p297
S'Effect'
p298
sS'source'
p299
NsS'text'
p300
S''
sS'actor'
p301
NsS'delay'
p302
S'None'
p303
sS'start'
p304
S'phase'
p305
sS'target'
p306
NsS'duration'
p307
I0
sS'evt'
p308
NsS'typ'
p309
S'Text'
p310
sS'display'
p311
S'Off'
p312
sS'wait'
p313
g303
ssg251
S''
sg201
g1
(g202
g3
NtRp314
(dp315
g205
(dp316
I0
(dp317
S'priority'
p318
(dp319
sS'children_states'
p320
(dp321
ssI1
(dp322
g318
(dp323
sg320
(dp324
ssI2
(dp325
g318
(dp326
sg320
(dp327
sssg215
(dp328
sg217
(dp329
I0
(dp330
I1
(dp331
ssI1
(dp332
I2
(dp333
ssI2
(dp334
ssg222
g329
sg223
(dp335
I0
(dp336
sI1
(dp337
I0
g331
ssI2
(dp338
I1
g333
sssg227
g329
sbsg276
V100
p339
sg185
Nsg186
(dp340
sg278
I0
sg279
g305
sg280
Nsg282
g303
sg36
(I0
I0
I0
I0
tp341
sg59
I0
sg283
(dp342
sg285
S'Off'
p343
sg39
S'scripteffect'
p344
sg14
Nsg199
(tsg287
(tsg288
S'Fade'
p345
sg289
g44
(g45
(I0
tS'b'
tRp346
(I1
(I4
tg47
(S'i8'
I0
I1
tRp347
(I3
S'<'
NNNI-1
I-1
I0
tbI00
S'\xc8\x00\x00\x00\x00\x00\x00\x00\x00\x00\x00\x00\x00\x00\x00\x00\x00\x00\x00\x00\x00\x00\x00\x00\xff\x00\x00\x00\x00\x00\x00\x00'
tbsg290
S''
sg12
g298
sg291
g74
sg292
g312
sbag1
(g230
g3
NtRp348
(dp349
g15
(dp350
g234
S''
sg192
g235
sg236
g237
sg238
S''
sg239
g240
sg241
Nsg242
g243
sg244
Nsg245
I0
sg246
g243
sg247
Nsg248
g249
sg250
Nssg251
Vbu
p351
sg201
g1
(g202
g3
NtRp352
(dp353
g205
(dp354
I0
(dp355
g208
(dp356
sg210
(dp357
ssI1
(dp358
g208
(dp359
sg210
(dp360
ssI2
(dp361
g208
(dp362
sg210
(dp363
sssg215
(dp364
sg217
(dp365
I0
(dp366
I1
(dp367
ssI1
(dp368
I2
(dp369
ssI2
(dp370
ssg222
g365
sg223
(dp371
I0
(dp372
sI1
(dp373
I0
g367
ssI2
(dp374
I1
g369
sssg227
g365
sbsg276
I0
sg185
Nsg186
(dp375
sg278
I0
sg279
g237
sg280
g281
sg282
g243
sg36
Nsg59
I0
sg283
(dp376
sg285
g243
sg39
g286
sg14
Nsg199
(tsg287
(tsg288
g240
sg289
Nsg290
S''
sg12
g235
sg291
Nsg292
g249
sbag1
(g230
g3
NtRp377
(dp378
g15
(dp379
S'info'
p380
S''
sS'name'
p381
S'Effect'
p382
sS'start'
p383
S'phase'
p384
sS'text'
p385
S''
sS'typ'
p386
S'Text'
p387
sS'actor'
p388
NsS'delay'
p389
S'None'
p390
sS'source'
p391
NsS'duration'
p392
I0
sS'wait'
p393
g390
sS'evt'
p394
NsS'display'
p395
S'Off'
p396
sS'target'
p397
Nssg251
S''
sg201
g1
(g202
g3
NtRp398
(dp399
g205
(dp400
I0
(dp401
S'priority'
p402
(dp403
sS'children_states'
p404
(dp405
ssI1
(dp406
g402
(dp407
sg404
(dp408
ssI2
(dp409
g402
(dp410
sg404
(dp411
sssg215
(dp412
sg217
(dp413
I0
(dp414
I1
(dp415
ssI1
(dp416
I2
(dp417
ssI2
(dp418
ssg222
g413
sg223
(dp419
I0
(dp420
sI1
(dp421
I0
g415
ssI2
(dp422
I1
g417
sssg227
g413
sbsg276
I0
sg185
Nsg186
(dp423
sg278
I0
sg279
g384
sg280
Nsg282
g390
sg36
Nsg59
I0
sg283
(dp424
sg285
g390
sg39
S'scripteffect'
p425
sg14
Nsg199
(tsg287
(tsg288
S'Call'
p426
sg289
Nsg290
Vcapy
p427
sg12
g382
sg291
Nsg292
g396
sbasg283
(dp428
g192
g188
ssg287
(tsg39
S'script'
p429
sS'logic'
p430
S''
sbag1
(g181
g3
NtRp431
(dp432
g14
Nsg184
I0
sg185
Nsg186
(dp433
sg12
Vcapy
p434
sg189
(lp435
g1
(cgam_script_base
SceneScriptCondition
p436
g3
NtRp437
(dp438
g290
Vcapy
p439
sg12
S'Cond'
p440
sg15
(dp441
g380
S''
sg381
g440
sg386
g426
sg388
NsS'cond'
p442
S''
sS'key'
p443
S''
sS'owner'
p444
NsS'subject'
p445
Nsg394
Nsg397
Nssg39
S'scriptcond'
p446
sS'attach_to_event'
p447
I00
sg288
g426
sg280
NsS'cond'
p448
S''
sS'key'
p449
S''
sg289
NsS'owner'
p450
Nsg291
NsS'subject'
p451
Nsbasg15
(dp452
g381
S'Script0'
p453
sS'iter'
p454
S'always'
p455
sS'effects'
p456
(lp457
sS'conds'
p458
(lp459
sS'logic'
p460
S''
ssg199
(tsg200
I1
sg201
g1
(g202
g3
NtRp461
(dp462
g205
(dp463
I0
(dp464
g402
(dp465
sg404
(dp466
ssI1
(dp467
g402
(dp468
sg404
(dp469
sssg215
(dp470
sg217
(dp471
I0
(dp472
I1
(dp473
ssI1
(dp474
ssg222
g471
sg223
(dp475
I0
(dp476
sI1
(dp477
I0
g473
sssg227
g471
sbsg36
Nsg59
I0
sg228
(lp478
g1
(g230
g3
NtRp479
(dp480
g15
(dp481
g380
S''
sg381
g382
sg383
g384
sg385
S''
sg386
g387
sg388
Nsg389
g390
sg391
Nsg392
I0
sg393
g390
sg394
Nsg395
g396
sg397
Nssg251
VZo
p482
sg201
g1
(g202
g3
NtRp483
(dp484
g205
(dp485
I0
(dp486
g402
(dp487
sg404
(dp488
ssI1
(dp489
g402
(dp490
sg404
(dp491
ssI2
(dp492
g402
(dp493
sg404
(dp494
sssg215
(dp495
sg217
(dp496
I0
(dp497
I1
(dp498
ssI1
(dp499
I2
(dp500
ssI2
(dp501
ssg222
g496
sg223
(dp502
I0
(dp503
sI1
(dp504
I0
g498
ssI2
(dp505
I1
g500
sssg227
g496
sbsg276
I0
sg185
Nsg186
(dp506
sg278
I0
sg279
g384
sg280
S'Narrator'
p507
sg282
g390
sg36
Nsg59
I0
sg283
(dp508
sg285
g390
sg39
g425
sg14
Nsg199
(tsg287
(tsg288
g387
sg289
Nsg290
S''
sg12
g382
sg291
S'info'
p509
sg292
g396
sbasg283
(dp510
g381
g453
ssg287
(tsg39
S'script'
p511
sg430
S''
sbasg147
(dp512
g74
(dp513
S'layer'
p514
g65
sg118
NsS'pos'
p515
g90
sg117
g76
ssg9
(dp516
g111
F0.94000000000000006
sg113
g13
sg112
g21
sg110
I1
sg114
Nsg109
g50
sg108
g52
ssg65
(dp517
g111
I0
sg113
g67
sg112
g73
sg110
I1
sg114
Nsg109
g93
sg108
g95
ssg23
(dp518
g62
g9
sg118
Nsg117
g26
sS'pos'
p519
g46
sssg177
g178
sg63
(lp520
sg150
(lp521
g65
ag9
asg167
I0
sb.