ccopy_reg
_reconstructor
p1
(cgam_cutscene
CutsceneData
p2
c__builtin__
object
p3
NtRp4
(dp5
S'layers'
p6
(lp7
g1
(cgam_cutscene
CutsceneLayer
p8
g3
NtRp9
(dp10
S'distance'
p11
I0
sS'name'
p12
S'Layer'
p13
sS'parent'
p14
NsS'default_infos'
p15
(dp16
S'distance'
p17
I0
sS'name'
p18
g13
sS'parent'
p19
NsS'items'
p20
(lp21
g1
(cgam_cutscene
CutsceneSprite
p22
g3
NtRp23
(dp24
S'scale'
p25
F0.35000000000000003
sg12
S'Sprite1'
p26
sg15
(dp27
S'source'
p28
S'common/default'
p29
sS'scale'
p30
F1
sS'set'
p31
S'default'
p32
sS'bound'
p33
Nsg18
S'Sprite'
p34
ssS'bound'
p35
NsS'source'
p36
S'common/dec0-2.png'
p37
sS'set'
p38
g32
sS'type'
p39
S'sprite'
p40
sS'ID'
p41
I2
sbasg33
NsS'pos'
p42
(dp43
g23
cnumpy.core.multiarray
_reconstruct
p44
(cnumpy
ndarray
p45
(I0
tS'b'
tRp46
(I1
(I2
tcnumpy
dtype
p47
(S'i8'
I0
I1
tRp48
(I3
S'<'
NNNI-1
I-1
I0
tbI00
S'~\x02\x00\x00\x00\x00\x00\x00S\x01\x00\x00\x00\x00\x00\x00'
tbssS'state'
p49
S'idle'
p50
sS'offset'
p51
g44
(g45
(I0
tS'b'
tRp52
(I1
(I2
tg48
I00
S'\x00\x00\x00\x00\x00\x00\x00\x00\x00\x00\x00\x00\x00\x00\x00\x00'
tbsS'alpha'
p53
I1
sS'children'
p54
(lp55
sS'zoom'
p56
I1
ssS'items'
p57
g21
sg35
NsS'pos'
p58
g43
sS'state'
p59
g50
sS'offset'
p60
g52
sS'alpha'
p61
I1
sg41
I2
sg39
S'layer'
p62
sS'children'
p63
g55
sS'zoom'
p64
I1
sbag1
(g8
g3
NtRp65
(dp66
g11
I0
sg12
S'Layer'
p67
sg14
Nsg15
(dp68
S'distance'
p69
I0
sS'name'
p70
g67
sS'parent'
p71
NsS'items'
p72
(lp73
g1
(g22
g3
NtRp74
(dp75
g25
F1
sg12
S'Sprite1'
p76
sg15
(dp77
S'source'
p78
S'common/default'
p79
sS'scale'
p80
F1
sS'set'
p81
S'default'
p82
sS'bound'
p83
NsS'name'
p84
S'Sprite'
p85
ssg35
Nsg36
g79
sg38
g82
sg39
S'sprite'
p86
sg41
I1
sbasS'bound'
p87
NsS'pos'
p88
(dp89
g74
g44
(g45
(I0
tS'b'
tRp90
(I1
(I2
tg48
I00
S'\x8f\x01\x00\x00\x00\x00\x00\x00\xbd\x01\x00\x00\x00\x00\x00\x00'
tbsg23
g44
(g45
(I0
tS'b'
tRp91
(I1
(I2
tg48
I00
S'~\x02\x00\x00\x00\x00\x00\x00S\x01\x00\x00\x00\x00\x00\x00'
tbssS'state'
p92
S'idle'
p93
sS'offset'
p94
g44
(g45
(I0
tS'b'
tRp95
(I1
(I2
tg47
(S'i8'
I0
I1
tRp96
(I3
S'<'
NNNI-1
I-1
I0
tbI00
S'\x00\x00\x00\x00\x00\x00\x00\x00\x00\x00\x00\x00\x00\x00\x00\x00'
tbsS'alpha'
p97
I1
sS'children'
p98
(lp99
sS'zoom'
p100
I1
ssg57
g73
sg35
Nsg58
g89
sg36
g4
sg59
g93
sg60
g95
sg61
I1
sg41
I1
sg39
S'layer'
p101
sg63
g99
sg64
I1
sbasg63
(lp102
sS'bg'
p103
S''
sg12
Vtest
p104
sg14
NsS'pan'
p105
(I0
I0
tp106
sS'panrange'
p107
(I0
I0
I0
I0
tp108
sg64
I1
sS'typID'
p109
(dp110
g101
I3
sS'sprite'
p111
I3
ssS'queue'
p112
(lp113
sS'cast'
p114
g1
(cgam_cast_data
LocCastData
p115
g3
NtRp116
(dp117
g14
NsS'prox'
p118
g1
(cgraphview.clotools
sparsemat
p119
c__builtin__
dict
p120
(dtRp121
(dp122
S'dummy'
p123
g1
(cgraphview.clotools
sparsedummy
p124
g3
NtRp125
(dp126
S'default'
p127
F0
sS'miskey'
p128
Nsg14
g121
sbsbsg109
(dp129
S'actor'
p130
I1
ssS'actors'
p131
(lp132
sS'new_items'
p133
(lp134
sS'infos'
p135
(dp136
sg63
(lp137
sS'infotypes'
p138
(dp139
g130
(S'perc'
S'control'
S'subt'
g70
S'agil'
S'color'
S'prox'
S'face'
S'react'
S'status'
S'portrait'
S'prof'
S'terr'
tp140
ssbsS'setting'
p141
g1
(cgam_setting
SettingData
p142
g3
NtRp143
(dp144
g6
(lp145
g1
(cgam_setting
PlaceLayer
p146
g3
NtRp147
(dp148
g11
I0
sg12
g67
sg14
Nsg15
(dp149
g69
I0
sg70
g67
sg71
Nsg72
(lp150
sg87
Nsg88
(dp151
sg92
g93
sg94
g95
sg97
I1
sg98
(lp152
sg100
I1
ssg57
g150
sg35
Nsg58
g151
sg36
g143
sg59
g93
sg60
g95
sg61
I1
sg41
I1
sg39
g101
sg63
g152
sg64
I1
sbasg63
(lp153
sg103
S''
sg12
S'place'
p154
sg14
Nsg138
(dp155
g101
(S'offset'
p156
S'state'
p157
S'zoom'
p158
S'distance'
p159
S'items'
p160
S'name'
p161
S'bound'
p162
S'order'
tp163
sg111
(S'name'
tp164
ssg107
g108
sg64
I1
sg109
(dp165
g101
I2
sg111
I1
ssS'idx'
p166
I0
sS'music'
p167
S''
sg105
(I0
I0
tp168
sg135
(dp169
g147
(dp170
g159
I0
sg161
g67
sg160
g150
sg158
I1
sg162
Nsg157
g93
sg156
g95
sssS'sprites'
p171
(lp172
sg133
(lp173
g147
asS'size'
p174
(I3000
I2000
tp175
sbsg167
S''
sg133
(lp176
g65
ag9
asS'scripts'
p177
(lp178
g1
(cgam_script_base
Script
p179
g3
NtRp180
(dp181
g14
NsS'runs'
p182
I0
sS'inverse'
p183
NsS'cues'
p184
(dp185
sg12
S'Script0'
p186
sS'conds'
p187
(lp188
g1
(cgam_script_base
SceneScriptCondition
p189
g3
NtRp190
(dp191
S'info'
p192
VTrue
p193
sg12
S'Cond'
p194
sg15
(dp195
S'info'
p196
S''
sS'name'
p197
g194
sS'evt'
p198
NsS'actor'
p199
NsS'cond'
p200
S''
sS'key'
p201
S''
sS'target'
p202
NsS'owner'
p203
NsS'typ'
p204
S'Call'
p205
sS'subject'
p206
NssS'evt'
p207
S'State'
p208
sS'attach_to_event'
p209
I00
sS'typ'
p210
S'Python'
p211
sS'actor'
p212
NsS'cond'
p213
S''
sS'key'
p214
S''
sS'target'
p215
g74
sS'owner'
p216
Nsg39
S'scriptcond'
p217
sS'subject'
p218
Nsbasg15
(dp219
S'conds'
p220
(lp221
sS'logic'
p222
S''
sS'name'
p223
g186
sS'iter'
p224
S'always'
p225
sS'effects'
p226
(lp227
ssS'args'
p228
(tsS'iter'
p229
I1
sS'states'
p230
g1
(cnetworkx.classes.digraph
DiGraph
p231
g3
NtRp232
(dp233
S'node'
p234
(dp235
I0
(dp236
S'started'
p237
NsS'priority'
p238
(dp239
sS'waiting'
p240
I0
sS'time'
p241
I0
sS'duration'
p242
I0
sS'children_states'
p243
(dp244
g1
(cgam_script_base
SceneScriptEffect
p245
g3
NtRp246
(dp247
g15
(dp248
S'info'
p249
S''
sS'name'
p250
S'Effect'
p251
sS'source'
p252
NsS'text'
p253
S''
sS'actor'
p254
NsS'delay'
p255
S'None'
p256
sS'start'
p257
S'phase'
p258
sS'target'
p259
NsS'duration'
p260
I0
sS'evt'
p261
NsS'typ'
p262
S'Text'
p263
sS'display'
p264
S'Off'
p265
sS'wait'
p266
g256
ssS'text'
p267
S''
sg230
g1
(g231
g3
NtRp268
(dp269
g234
(dp270
I0
(dp271
S'priority'
p272
(dp273
sS'children_states'
p274
(dp275
g1
(cgraphview.gv_threadevents
FadeEvt
p276
g3
NtRp277
(dp278
g183
Nsg184
(dp279
sS'block_thread'
p280
I0
sg14
g246
sg228
(tsg59
I0
sS'surface'
p281
Nsg230
g1
(g231
g3
NtRp282
(dp283
g234
(dp284
I0
(dp285
S'priority'
p286
(dp287
sS'children_states'
p288
(dp289
ssI1
(dp290
g286
(dp291
sg288
(dp292
ssI2
(dp293
g286
(dp294
sg288
(dp295
sssS'graph'
p296
(dp297
sS'succ'
p298
(dp299
I0
(dp300
I1
(dp301
sI2
(dp302
ssI1
(dp303
I1
(dp304
sI2
(dp305
ssI2
(dp306
I0
(dp307
sssS'edge'
p308
g299
sS'pred'
p309
(dp310
I0
(dp311
I2
g307
ssI1
(dp312
I0
g301
sI1
g304
ssI2
(dp313
I0
g302
sI1
g305
sssS'adj'
p314
g299
sbsg36
NsS'step'
p315
I0
sS'mode'
p316
S'step'
p317
sS'kwargs'
p318
(dp319
sS'duration'
p320
F100
sS'mod'
p321
((I0
I0
I0
I0
tp322
(I0
I0
I0
I255
tp323
tp324
sS'_affects'
p325
(tsg39
S'fade'
p326
sS'tinit'
p327
I21
sbI0
sssI1
(dp328
g272
(dp329
sg274
(dp330
g277
I1
sssI2
(dp331
g272
(dp332
sg274
(dp333
g277
I2
ssssg296
(dp334
sg298
(dp335
I0
(dp336
I1
(dp337
ssI1
(dp338
I2
(dp339
ssI2
(dp340
ssg308
g335
sg309
(dp341
I0
(dp342
sI1
(dp343
I0
g337
ssI2
(dp344
I1
g339
sssg314
g335
sbsg320
F100
sg183
Nsg184
(dp345
sg280
I0
sS'start'
p346
g258
sg212
NsS'delay'
p347
g256
sg36
g322
sg59
I0
sg318
(dp348
sg39
S'scripteffect'
p349
sg14
Nsg228
(tsS'repeatable'
p350
I01
sg325
(tsg210
S'Fade'
p351
sS'wait'
p352
g256
sg192
S''
sg12
g251
sg215
g323
sg207
NsS'display'
p353
g265
sbI0
sg1
(g245
g3
NtRp354
(dp355
g15
(dp356
S'info'
p357
S''
sg223
S'Effect'
p358
sS'source'
p359
NsS'text'
p360
S''
sS'actor'
p361
NsS'delay'
p362
S'None'
p363
sS'start'
p364
S'phase'
p365
sS'target'
p366
NsS'duration'
p367
I0
sS'evt'
p368
NsS'typ'
p369
S'Text'
p370
sS'display'
p371
S'Off'
p372
sS'wait'
p373
g363
ssg267
Vga
p374
sg230
g1
(g231
g3
NtRp375
(dp376
g234
(dp377
I0
(dp378
g238
(dp379
sg243
(dp380
ssI1
(dp381
g238
(dp382
sg243
(dp383
ssI2
(dp384
g238
(dp385
sg243
(dp386
sssg296
(dp387
sg298
(dp388
I0
(dp389
I1
(dp390
ssI1
(dp391
I2
(dp392
ssI2
(dp393
ssg308
g388
sg309
(dp394
I0
(dp395
sI1
(dp396
I0
g390
ssI2
(dp397
I1
g392
sssg314
g388
sbsg320
I0
sg183
Nsg184
(dp398
sg280
I1
sg346
g365
sg212
S'Narrator'
p399
sg347
g363
sg36
Nsg59
I0
sg318
(dp400
sg352
g363
sg39
S'scripteffect'
p401
sg14
Nsg228
(tsg325
(tsg210
g370
sg215
Nsg192
S''
sg12
g358
sg207
Nsg353
g372
sbI0
sg1
(g245
g3
NtRp402
(dp403
g15
(dp404
g357
S''
sg223
g358
sg359
Nsg360
S''
sg361
Nsg362
g363
sg364
g365
sg366
Nsg367
I0
sg368
Nsg369
g370
sg371
g372
sg373
g363
ssg267
Vbu
p405
sg230
g1
(g231
g3
NtRp406
(dp407
g234
(dp408
I0
(dp409
g238
(dp410
sg243
(dp411
ssI1
(dp412
g238
(dp413
sg243
(dp414
ssI2
(dp415
g238
(dp416
sg243
(dp417
sssg296
(dp418
sg298
(dp419
I0
(dp420
I1
(dp421
ssI1
(dp422
I2
(dp423
ssI2
(dp424
ssg308
g419
sg309
(dp425
I0
(dp426
sI1
(dp427
I0
g421
ssI2
(dp428
I1
g423
sssg314
g419
sbsg320
I0
sg183
Nsg184
(dp429
sg280
I1
sg346
g365
sg212
g399
sg347
g363
sg36
Nsg59
I0
sg318
(dp430
sg352
g363
sg39
g401
sg14
Nsg228
(tsg325
(tsg210
g370
sg215
Nsg192
S''
sg12
g358
sg207
Nsg353
g372
sbI0
sg1
(g245
g3
NtRp431
(dp432
g15
(dp433
S'info'
p434
S''
sS'name'
p435
S'Effect'
p436
sS'source'
p437
NsS'text'
p438
S''
sS'actor'
p439
NsS'delay'
p440
S'None'
p441
sS'start'
p442
S'phase'
p443
sS'target'
p444
NsS'duration'
p445
I0
sS'evt'
p446
NsS'typ'
p447
S'Text'
p448
sS'display'
p449
S'Off'
p450
sS'wait'
p451
g441
ssg267
S''
sg230
g1
(g231
g3
NtRp452
(dp453
g234
(dp454
I0
(dp455
S'priority'
p456
(dp457
sS'children_states'
p458
(dp459
ssI1
(dp460
g456
(dp461
sg458
(dp462
ssI2
(dp463
g456
(dp464
sg458
(dp465
sssg296
(dp466
sg298
(dp467
I0
(dp468
I1
(dp469
ssI1
(dp470
I2
(dp471
ssI2
(dp472
ssg308
g467
sg309
(dp473
I0
(dp474
sI1
(dp475
I0
g469
ssI2
(dp476
I1
g471
sssg314
g467
sbsg320
I0
sg183
Nsg184
(dp477
sg280
I0
sg346
g443
sg212
Nsg347
g441
sg36
Nsg59
I0
sg318
(dp478
sg352
g441
sg39
S'scripteffect'
p479
sg14
Nsg228
(tsg325
(tsg210
S'Call'
p480
sg215
Nsg192
Vcapy
p481
sg12
g436
sg207
Nsg353
g450
sbI0
sg1
(g245
g3
NtRp482
(dp483
g15
(dp484
S'info'
p485
S''
sS'name'
p486
S'Effect'
p487
sS'start'
p488
S'phase'
p489
sS'text'
p490
S''
sS'typ'
p491
S'Text'
p492
sS'actor'
p493
NsS'delay'
p494
S'None'
p495
sS'source'
p496
NsS'duration'
p497
I0
sS'wait'
p498
g495
sS'evt'
p499
NsS'display'
p500
S'Off'
p501
sS'target'
p502
Nssg267
S''
sg230
g1
(g231
g3
NtRp503
(dp504
g234
(dp505
I0
(dp506
S'priority'
p507
(dp508
sS'children_states'
p509
(dp510
g1
(cgraphview.gv_threadevents
ZoomEvt
p511
g3
NtRp512
(dp513
g183
Nsg184
(dp514
sg280
I0
sg14
g482
sS'oldzoom'
p515
I1
sg325
(tsS'absolute_mode'
p516
I01
sg228
(tsS'scene'
p517
g4
sg230
g1
(g231
g3
NtRp518
(dp519
g234
(dp520
I0
(dp521
g286
(dp522
sg288
(dp523
ssI1
(dp524
g286
(dp525
sg288
(dp526
ssI2
(dp527
g286
(dp528
sg288
(dp529
sssg296
(dp530
sg298
(dp531
I0
(dp532
I1
(dp533
sI2
(dp534
ssI1
(dp535
I1
(dp536
sI2
(dp537
ssI2
(dp538
I0
(dp539
sssg308
g531
sg309
(dp540
I0
(dp541
I2
g539
ssI1
(dp542
I0
g533
sI1
g536
ssI2
(dp543
I0
g534
sI1
g537
sssg314
g531
sbsg36
Nsg59
I0
sg215
F1.8200000000000001
sS'oldpos'
p544
(I0
I0
tp545
sg318
(dp546
sg315
I0
sg327
I21
sg39
S'zoom'
p547
sg320
F100
sg316
g317
sbI0
sssI1
(dp548
g507
(dp549
sg509
(dp550
g512
I1
sssI2
(dp551
g507
(dp552
sg509
(dp553
g512
I2
ssssg296
(dp554
sg298
(dp555
I0
(dp556
I1
(dp557
ssI1
(dp558
I2
(dp559
ssI2
(dp560
ssg308
g555
sg309
(dp561
I0
(dp562
sI1
(dp563
I0
g557
ssI2
(dp564
I1
g559
sssg314
g555
sbsg320
F100
sg183
Nsg184
(dp565
sg280
I0
sg346
g489
sg212
Nsg347
g495
sg36
Nsg59
I0
sg318
(dp566
sg39
S'scripteffect'
p567
sg14
Nsg228
(tsg350
I01
sg325
(tsg210
S'Zoom'
p568
sg352
g495
sg192
S''
sg12
g487
sg215
F1.8200000000000001
sg207
Nsg353
g501
sbI0
sg1
(g245
g3
NtRp569
(dp570
g15
(dp571
S'info'
p572
S''
sS'name'
p573
S'Effect'
p574
sS'start'
p575
S'phase'
p576
sS'text'
p577
S''
sS'typ'
p578
S'Text'
p579
sS'actor'
p580
NsS'delay'
p581
S'None'
p582
sS'source'
p583
NsS'duration'
p584
I0
sS'wait'
p585
g582
sS'evt'
p586
NsS'display'
p587
S'Off'
p588
sS'target'
p589
Nssg267
S''
sg230
g1
(g231
g3
NtRp590
(dp591
g234
(dp592
I0
(dp593
S'priority'
p594
(dp595
sS'children_states'
p596
(dp597
g1
(cgraphview.gv_threadevents
PanEvt
p598
g3
NtRp599
(dp600
g183
Nsg184
(dp601
sg280
I0
sg14
g569
sg516
I01
sg228
(tsg517
g4
sg230
g1
(g231
g3
NtRp602
(dp603
g234
(dp604
I0
(dp605
g286
(dp606
sg288
(dp607
ssI1
(dp608
g286
(dp609
sg288
(dp610
ssI2
(dp611
g286
(dp612
sg288
(dp613
sssg296
(dp614
sg298
(dp615
I0
(dp616
I1
(dp617
sI2
(dp618
ssI1
(dp619
I1
(dp620
sI2
(dp621
ssI2
(dp622
I0
(dp623
sssg308
g615
sg309
(dp624
I0
(dp625
I2
g623
ssI1
(dp626
I0
g617
sI1
g620
ssI2
(dp627
I0
g618
sI1
g621
sssg314
g615
sbsg36
Nsg59
I0
sg544
g168
sg316
g317
sS'rel'
p628
g44
(g45
(I0
tS'b'
tRp629
(I1
(I2
tg47
(S'i8'
I0
I1
tRp630
(I3
S'<'
NNNI-1
I-1
I0
tbI00
S'\xc8\x00\x00\x00\x00\x00\x00\x00\x00\x00\x00\x00\x00\x00\x00\x00'
tbsg318
(dp631
sg315
I0
sg325
(tsg39
S'pan'
p632
sg320
F100
sg327
I21
sbI0
sssI1
(dp633
g594
(dp634
sg596
(dp635
g599
I1
sssI2
(dp636
g594
(dp637
sg596
(dp638
g599
I2
ssssg296
(dp639
sg298
(dp640
I0
(dp641
I1
(dp642
ssI1
(dp643
I2
(dp644
ssI2
(dp645
ssg308
g640
sg309
(dp646
I0
(dp647
sI1
(dp648
I0
g642
ssI2
(dp649
I1
g644
sssg314
g640
sbsg320
F100
sg183
Nsg184
(dp650
sg280
I0
sg346
g576
sg212
Nsg347
g582
sg36
(I0
I0
I0
I0
tp651
sg59
I0
sg318
(dp652
sg39
S'scripteffect'
p653
sg14
Nsg228
(tsg350
I01
sg325
(tsg210
S'Pan'
p654
sg352
S'Off'
p655
sg192
S''
sg12
g574
sg215
g629
sg207
g74
sg353
g588
sbI0
sssI1
(dp656
g237
I21
sg238
(dp657
sg240
I1
sg241
I0
sg242
I0
sg243
(dp658
g246
I0
sg354
I2
sg402
I0
sg431
I0
sg482
I0
sg569
I0
sssI2
(dp659
g237
I39
sg286
(dp660
sg240
I1
sg241
I0
sg242
I0
sg288
(dp661
g402
I2
sg246
I1
sg431
I0
sg569
I1
sg482
I1
sssI3
(dp662
g237
I39
sg286
(dp663
sg240
I0
sg241
I0
sg242
F100
sg288
(dp664
g431
I2
sg246
I1
sg569
I1
sg482
I1
sssI4
(dp665
g237
Nsg286
(dp666
sg240
I0
sg241
F100
sg242
I0
sg288
(dp667
g482
I2
sg569
I2
sg246
I2
ssssg296
(dp668
sg298
(dp669
I0
(dp670
I1
(dp671
ssI1
(dp672
I2
(dp673
ssI2
(dp674
I3
(dp675
ssI3
(dp676
I4
(dp677
ssI4
(dp678
ssg308
g669
sg309
(dp679
I0
(dp680
sI1
(dp681
I0
g671
ssI2
(dp682
I1
g673
ssI3
(dp683
I2
g675
ssI4
(dp684
I3
g677
sssg314
g669
sbsg36
Nsg59
I0
sS'effects'
p685
(lp686
g354
ag569
ag482
ag246
ag402
ag431
asg318
(dp687
g223
g186
ssg325
(tsg39
S'script'
p688
sS'logic'
p689
S''
sbag1
(g179
g3
NtRp690
(dp691
g14
Nsg182
I0
sg183
Nsg184
(dp692
sg12
Vcapy
p693
sg187
(lp694
g1
(g189
g3
NtRp695
(dp696
g192
Vcapy
p697
sg12
S'Cond'
p698
sg15
(dp699
g434
S''
sg435
g698
sg446
Nsg439
NsS'cond'
p700
S''
sS'key'
p701
S''
sg444
NsS'owner'
p702
Nsg447
g480
sS'subject'
p703
Nssg207
Nsg209
I00
sg210
g480
sg212
Nsg213
S''
sg214
S''
sg215
Nsg216
Nsg39
S'scriptcond'
p704
sg218
Nsbag1
(g189
g3
NtRp705
(dp706
g192
Vcapo
p707
sg12
g698
sg15
(dp708
g434
S''
sg435
g698
sg446
Nsg439
Nsg700
S''
sg701
S''
sg444
Nsg702
Nsg447
g480
sg703
Nssg207
Nsg209
I00
sg210
g480
sg212
Nsg213
S''
sg214
S''
sg215
Nsg216
Nsg39
g704
sg218
Nsbasg15
(dp709
S'conds'
p710
(lp711
sS'logic'
p712
S''
sg435
S'Script0'
p713
sS'iter'
p714
S'always'
p715
sS'effects'
p716
(lp717
ssg228
(tsg229
I1
sg230
g1
(g231
g3
NtRp718
(dp719
g234
(dp720
I0
(dp721
g237
Nsg456
(dp722
sg240
I0
sg241
I0
sg242
I0
sg458
(dp723
g1
(g245
g3
NtRp724
(dp725
g15
(dp726
g434
S''
sg435
g436
sg437
Nsg438
S''
sg439
Nsg440
g441
sg442
g443
sg444
Nsg445
I0
sg446
Nsg447
g448
sg449
g450
sg451
g441
ssg267
VZo
p727
sg230
g1
(g231
g3
NtRp728
(dp729
g234
(dp730
I0
(dp731
g456
(dp732
sg458
(dp733
ssI1
(dp734
g456
(dp735
sg458
(dp736
ssI2
(dp737
g456
(dp738
sg458
(dp739
sssg296
(dp740
sg298
(dp741
I0
(dp742
I1
(dp743
ssI1
(dp744
I2
(dp745
ssI2
(dp746
ssg308
g741
sg309
(dp747
I0
(dp748
sI1
(dp749
I0
g743
ssI2
(dp750
I1
g745
sssg314
g741
sbsg320
I0
sg183
Nsg184
(dp751
sg280
I1
sg346
g443
sg212
S'Narrator'
p752
sg347
g441
sg36
Nsg59
I0
sg318
(dp753
sg352
g441
sg39
g479
sg14
Nsg228
(tsg325
(tsg210
g448
sg215
Nsg192
S''
sg12
g436
sg207
S'info'
p754
sg353
g450
sbI0
sssI1
(dp755
g237
I39
sg456
(dp756
sg240
I1
sg241
I0
sg242
I0
sg458
(dp757
g724
I2
sssI2
(dp758
g237
I39
sg286
(dp759
sg240
I0
sg241
I0
sg242
I0
sg288
(dp760
ssI3
(dp761
g237
I39
sg286
(dp762
sg240
I0
sg241
I0
sg242
I0
sg288
(dp763
sssg296
(dp764
sg298
(dp765
I0
(dp766
I1
(dp767
ssI1
(dp768
I2
(dp769
ssI2
(dp770
I3
(dp771
ssI3
(dp772
ssg308
g765
sg309
(dp773
I0
(dp774
sI1
(dp775
I0
g767
ssI2
(dp776
I1
g769
ssI3
(dp777
I2
g771
sssg314
g765
sbsg36
Nsg59
I0
sg685
(lp778
g724
asg318
(dp779
g435
g713
ssg325
(tsg39
S'script'
p780
sg689
V#1 or #2
p781
sbasg135
(dp782
g74
(dp783
S'layer'
p784
g65
sS'bound'
p785
NsS'name'
p786
g76
sS'pos'
p787
g90
ssg65
(dp788
g159
I0
sg161
g67
sg160
g73
sg158
F1
sg162
Nsg157
g93
sg156
g44
(g45
(I0
tS'b'
tRp789
(I1
(I2
tg47
(S'i8'
I0
I1
tRp790
(I3
S'<'
NNNI-1
I-1
I0
tbI00
S'\x00\x00\x00\x00\x00\x00\x00\x00\x00\x00\x00\x00\x00\x00\x00\x00'
tbssg9
(dp791
g159
F0.94000000000000006
sg161
g13
sg160
g21
sg158
F1
sg162
Nsg157
g50
sg156
g44
(g45
(I0
tS'b'
tRp792
(I1
(I2
tg790
I00
S'\x00\x00\x00\x00\x00\x00\x00\x00\x00\x00\x00\x00\x00\x00\x00\x00'
tbssg23
(dp793
g62
g9
sS'pos'
p794
g46
sg785
Nsg786
g26
sssg174
g175
sg171
(lp795
g74
ag23
asg138
(dp796
g101
g163
sg111
(g786
g785
S'layer'
tp797
ssg166
I0
sb.